target datalayout = "e-m:e-p270:32:32-p271:32:32-p272:64:64-i64:64-i128:128-f80:128-n8:16:32:64-S128"
target triple = "x86_64-pc-linux-gnu"

%class.EnumRange = type { i32, i32 }
%class.EnumIterator = type { i32 }

@_ZL23vm_intrinsic_name_table = internal global [421 x ptr] zeroinitializer, align 16
@_ZL24vm_intrinsic_name_bodies = internal global ptr @.str.6, align 8
@.str = private unnamed_addr constant [6 x i8] c"_none\00", align 1
@.str.5 = private unnamed_addr constant [20 x i8] c"(unknown intrinsic)\00", align 1

; Function Attrs: mustprogress nounwind uwtable
define linkonce_odr hidden noundef i32 @_ZN20PrimitiveConversions4castIiiTnNSt9enable_ifIXcvbeqstT_stT0_EiE4typeELi0ETnNS1_IXcvbsr3std11is_integralIS2_EE5valueEiE4typeELi0ETnNS1_IXcvbsr3std11is_integralIS3_EE5valueEiE4typeELi0EEES2_S3_(i32 noundef %0) #1 comdat align 2 {
  %2 = alloca i32, align 4
  store i32 %0, ptr %2, align 4
  %3 = load i32, ptr %2, align 4
  ret i32 %3
}

; Function Attrs: mustprogress nounwind uwtable
define linkonce_odr hidden void @_ZN19EnumIterationTraitsI13vmIntrinsicIDE15assert_in_rangeIS0_EEvT_S3_S3_(i32 noundef %0, i32 noundef %1, i32 noundef %2) #1 comdat align 2 {
  %4 = alloca i32, align 4
  %5 = alloca i32, align 4
  %6 = alloca i32, align 4
  store i32 %0, ptr %4, align 4
  store i32 %1, ptr %5, align 4
  store i32 %2, ptr %6, align 4
  ret void
}

; Function Attrs: mustprogress nounwind uwtable
define linkonce_odr hidden noundef i32 @_ZN20PrimitiveConversions4castI13vmIntrinsicIDiTnNSt9enable_ifIXcvbcl10check_castIT_T0_EEEiE4typeELi0ETnNS2_IXcvbsr3std7is_enumIS3_EE5valueEiE4typeELi0EEES3_S4_(i32 noundef %0) #1 comdat align 2 {
  %2 = alloca i32, align 4
  store i32 %0, ptr %2, align 4
  %3 = load i32, ptr %2, align 4
  %4 = call noundef i32 @_ZN20PrimitiveConversions4castIiiTnNSt9enable_ifIXcvbeqstT_stT0_EiE4typeELi0ETnNS1_IXcvbsr3std11is_integralIS2_EE5valueEiE4typeELi0ETnNS1_IXcvbsr3std11is_integralIS3_EE5valueEiE4typeELi0EEES2_S3_(i32 noundef %3)
  ret i32 %4
}

; Function Attrs: mustprogress nounwind uwtable
define linkonce_odr hidden noundef i32 @_ZN19EnumIterationTraitsI13vmIntrinsicIDE16underlying_valueES0_(i32 noundef %0) #1 comdat align 2 {
  %2 = alloca i32, align 4
  store i32 %0, ptr %2, align 4
  %3 = load i32, ptr %2, align 4
  ret i32 %3
}

; Function Attrs: mustprogress nounwind uwtable
define linkonce_odr hidden void @_ZN9EnumRangeI13vmIntrinsicIDEC2ES0_S0_(ptr noundef nonnull align 4 dereferenceable(8) %0, i32 noundef %1, i32 noundef %2) unnamed_addr #1 comdat align 2 {
  %4 = alloca ptr, align 8
  %5 = alloca i32, align 4
  %6 = alloca i32, align 4
  store ptr %0, ptr %4, align 8
  store i32 %1, ptr %5, align 4
  store i32 %2, ptr %6, align 4
  %7 = load ptr, ptr %4, align 8
  %8 = getelementptr inbounds %class.EnumRange, ptr %7, i32 0, i32 0
  %9 = load i32, ptr %5, align 4
  %10 = call noundef i32 @_ZN19EnumIterationTraitsI13vmIntrinsicIDE16underlying_valueES0_(i32 noundef %9)
  store i32 %10, ptr %8, align 4
  %11 = getelementptr inbounds %class.EnumRange, ptr %7, i32 0, i32 1
  %12 = load i32, ptr %6, align 4
  %13 = call noundef i32 @_ZN19EnumIterationTraitsI13vmIntrinsicIDE16underlying_valueES0_(i32 noundef %12)
  store i32 %13, ptr %11, align 4
  %14 = load i32, ptr %5, align 4
  %15 = call noundef i32 @_ZN20PrimitiveConversions4castI13vmIntrinsicIDiTnNSt9enable_ifIXcvbcl10check_castIT_T0_EEEiE4typeELi0ETnNS2_IXcvbsr3std7is_enumIS3_EE5valueEiE4typeELi0EEES3_S4_(i32 noundef 1)
  %16 = call noundef i32 @_ZN20PrimitiveConversions4castI13vmIntrinsicIDiTnNSt9enable_ifIXcvbcl10check_castIT_T0_EEEiE4typeELi0ETnNS2_IXcvbsr3std7is_enumIS3_EE5valueEiE4typeELi0EEES3_S4_(i32 noundef 421)
  call void @_ZN19EnumIterationTraitsI13vmIntrinsicIDE15assert_in_rangeIS0_EEvT_S3_S3_(i32 noundef %14, i32 noundef %15, i32 noundef %16)
  %17 = load i32, ptr %6, align 4
  %18 = call noundef i32 @_ZN20PrimitiveConversions4castI13vmIntrinsicIDiTnNSt9enable_ifIXcvbcl10check_castIT_T0_EEEiE4typeELi0ETnNS2_IXcvbsr3std7is_enumIS3_EE5valueEiE4typeELi0EEES3_S4_(i32 noundef 1)
  %19 = call noundef i32 @_ZN20PrimitiveConversions4castI13vmIntrinsicIDiTnNSt9enable_ifIXcvbcl10check_castIT_T0_EEEiE4typeELi0ETnNS2_IXcvbsr3std7is_enumIS3_EE5valueEiE4typeELi0EEES3_S4_(i32 noundef 421)
  call void @_ZN19EnumIterationTraitsI13vmIntrinsicIDE15assert_in_rangeIS0_EEvT_S3_S3_(i32 noundef %17, i32 noundef %18, i32 noundef %19)
  ret void
}

; Function Attrs: mustprogress nounwind uwtable
define linkonce_odr hidden void @_ZNK12EnumIteratorI13vmIntrinsicIDE16assert_in_boundsEv(ptr noundef nonnull align 4 dereferenceable(4) %0) #1 comdat align 2 {
  %2 = alloca ptr, align 8
  store ptr %0, ptr %2, align 8
  ret void
}

; Function Attrs: mustprogress nounwind uwtable
define linkonce_odr hidden void @_ZN12EnumIteratorI13vmIntrinsicIDEC2ES0_(ptr noundef nonnull align 4 dereferenceable(4) %0, i32 noundef %1) unnamed_addr #1 comdat align 2 {
  %3 = alloca ptr, align 8
  %4 = alloca i32, align 4
  store ptr %0, ptr %3, align 8
  store i32 %1, ptr %4, align 4
  %5 = load ptr, ptr %3, align 8
  %6 = getelementptr inbounds %class.EnumIterator, ptr %5, i32 0, i32 0
  %7 = load i32, ptr %4, align 4
  %8 = call noundef i32 @_ZN19EnumIterationTraitsI13vmIntrinsicIDE16underlying_valueES0_(i32 noundef %7)
  store i32 %8, ptr %6, align 4
  %9 = load i32, ptr %4, align 4
  %10 = call noundef i32 @_ZN20PrimitiveConversions4castI13vmIntrinsicIDiTnNSt9enable_ifIXcvbcl10check_castIT_T0_EEEiE4typeELi0ETnNS2_IXcvbsr3std7is_enumIS3_EE5valueEiE4typeELi0EEES3_S4_(i32 noundef 1)
  %11 = call noundef i32 @_ZN20PrimitiveConversions4castI13vmIntrinsicIDiTnNSt9enable_ifIXcvbcl10check_castIT_T0_EEEiE4typeELi0ETnNS2_IXcvbsr3std7is_enumIS3_EE5valueEiE4typeELi0EEES3_S4_(i32 noundef 421)
  call void @_ZN19EnumIterationTraitsI13vmIntrinsicIDE15assert_in_rangeIS0_EEvT_S3_S3_(i32 noundef %9, i32 noundef %10, i32 noundef %11)
  ret void
}

; Function Attrs: mustprogress nounwind uwtable
define linkonce_odr hidden void @_ZN9EnumRangeI13vmIntrinsicIDEC2ES0_(ptr noundef nonnull align 4 dereferenceable(8) %0, i32 noundef %1) unnamed_addr #1 comdat align 2 {
  %3 = alloca ptr, align 8
  %4 = alloca i32, align 4
  store ptr %0, ptr %3, align 8
  store i32 %1, ptr %4, align 4
  %5 = load ptr, ptr %3, align 8
  %6 = load i32, ptr %4, align 4
  %7 = call noundef i32 @_ZN19EnumIterationTraitsI13vmIntrinsicIDE10enumeratorEi(i32 noundef 421)
  call void @_ZN9EnumRangeI13vmIntrinsicIDEC2ES0_S0_(ptr noundef nonnull align 4 dereferenceable(8) %5, i32 noundef %6, i32 noundef %7)
  ret void
}

; Function Attrs: mustprogress nounwind uwtable
define linkonce_odr hidden noundef i32 @_ZN19EnumIterationTraitsI13vmIntrinsicIDE10enumeratorEi(i32 noundef %0) #1 comdat align 2 {
  %2 = alloca i32, align 4
  store i32 %0, ptr %2, align 4
  %3 = load i32, ptr %2, align 4
  ret i32 %3
}

; Function Attrs: mustprogress nounwind uwtable
define linkonce_odr hidden noundef nonnull align 4 dereferenceable(4) ptr @_ZN12EnumIteratorI13vmIntrinsicIDEppEv(ptr noundef nonnull align 4 dereferenceable(4) %0) #1 comdat align 2 {
  %2 = alloca ptr, align 8
  store ptr %0, ptr %2, align 8
  %3 = load ptr, ptr %2, align 8
  call void @_ZNK12EnumIteratorI13vmIntrinsicIDE16assert_in_boundsEv(ptr noundef nonnull align 4 dereferenceable(4) %3)
  %4 = getelementptr inbounds %class.EnumIterator, ptr %3, i32 0, i32 0
  %5 = load i32, ptr %4, align 4
  %6 = add nsw i32 %5, 1
  store i32 %6, ptr %4, align 4
  ret ptr %3
}

; Function Attrs: mustprogress nounwind uwtable
define linkonce_odr hidden noundef i32 @_ZNK12EnumIteratorI13vmIntrinsicIDEdeEv(ptr noundef nonnull align 4 dereferenceable(4) %0) #1 comdat align 2 {
  %2 = alloca ptr, align 8
  store ptr %0, ptr %2, align 8
  %3 = load ptr, ptr %2, align 8
  call void @_ZNK12EnumIteratorI13vmIntrinsicIDE16assert_in_boundsEv(ptr noundef nonnull align 4 dereferenceable(4) %3)
  %4 = getelementptr inbounds %class.EnumIterator, ptr %3, i32 0, i32 0
  %5 = load i32, ptr %4, align 4
  %6 = call noundef i32 @_ZN19EnumIterationTraitsI13vmIntrinsicIDE10enumeratorEi(i32 noundef %5)
  ret i32 %6
}

; Function Attrs: mustprogress nounwind uwtable
define linkonce_odr hidden noundef zeroext i1 @_ZNK12EnumIteratorI13vmIntrinsicIDEneES1_(ptr noundef nonnull align 4 dereferenceable(4) %0, i32 %1) #1 comdat align 2 {
  %3 = alloca %class.EnumIterator, align 4
  %4 = alloca ptr, align 8
  %5 = getelementptr inbounds %class.EnumIterator, ptr %3, i32 0, i32 0
  store i32 %1, ptr %5, align 4
  store ptr %0, ptr %4, align 8
  %6 = load ptr, ptr %4, align 8
  %7 = getelementptr inbounds %class.EnumIterator, ptr %6, i32 0, i32 0
  %8 = load i32, ptr %7, align 4
  %9 = getelementptr inbounds %class.EnumIterator, ptr %3, i32 0, i32 0
  %10 = load i32, ptr %9, align 4
  %11 = icmp ne i32 %8, %10
  ret i1 %11
}

; Function Attrs: mustprogress nounwind uwtable
define linkonce_odr hidden i32 @_ZNK9EnumRangeI13vmIntrinsicIDE3endEv(ptr noundef nonnull align 4 dereferenceable(8) %0) #1 comdat align 2 {
  %2 = alloca %class.EnumIterator, align 4
  %3 = alloca ptr, align 8
  store ptr %0, ptr %3, align 8
  %4 = load ptr, ptr %3, align 8
  %5 = getelementptr inbounds %class.EnumRange, ptr %4, i32 0, i32 1
  %6 = load i32, ptr %5, align 4
  %7 = call noundef i32 @_ZN19EnumIterationTraitsI13vmIntrinsicIDE10enumeratorEi(i32 noundef %6)
  call void @_ZN12EnumIteratorI13vmIntrinsicIDEC2ES0_(ptr noundef nonnull align 4 dereferenceable(4) %2, i32 noundef %7)
  %8 = getelementptr inbounds %class.EnumIterator, ptr %2, i32 0, i32 0
  %9 = load i32, ptr %8, align 4
  ret i32 %9
}

; Function Attrs: mustprogress nounwind uwtable
define linkonce_odr hidden i32 @_ZNK9EnumRangeI13vmIntrinsicIDE5beginEv(ptr noundef nonnull align 4 dereferenceable(8) %0) #1 comdat align 2 {
  %2 = alloca %class.EnumIterator, align 4
  %3 = alloca ptr, align 8
  store ptr %0, ptr %3, align 8
  %4 = load ptr, ptr %3, align 8
  %5 = getelementptr inbounds %class.EnumRange, ptr %4, i32 0, i32 0
  %6 = load i32, ptr %5, align 4
  %7 = call noundef i32 @_ZN19EnumIterationTraitsI13vmIntrinsicIDE10enumeratorEi(i32 noundef %6)
  call void @_ZN12EnumIteratorI13vmIntrinsicIDEC2ES0_(ptr noundef nonnull align 4 dereferenceable(4) %2, i32 noundef %7)
  %8 = getelementptr inbounds %class.EnumIterator, ptr %2, i32 0, i32 0
  %9 = load i32, ptr %8, align 4
  ret i32 %9
}

; Function Attrs: mustprogress nounwind uwtable
define linkonce_odr hidden void @_ZN9EnumRangeI13vmIntrinsicIDEC2Ev(ptr noundef nonnull align 4 dereferenceable(8) %0) unnamed_addr #1 comdat align 2 {
  %2 = alloca ptr, align 8
  store ptr %0, ptr %2, align 8
  %3 = load ptr, ptr %2, align 8
  %4 = call noundef i32 @_ZN19EnumIterationTraitsI13vmIntrinsicIDE10enumeratorEi(i32 noundef 1)
  call void @_ZN9EnumRangeI13vmIntrinsicIDEC2ES0_(ptr noundef nonnull align 4 dereferenceable(8) %3, i32 noundef %4)
  ret void
}

; Function Attrs: mustprogress nounwind uwtable
define hidden void @_ZN12vmIntrinsics28init_vm_intrinsic_name_tableEv() #1 align 2 {
  %1 = alloca ptr, align 8
  %2 = alloca ptr, align 8
  %3 = alloca ptr, align 8
  %4 = alloca %class.EnumRange, align 4
  %5 = alloca %class.EnumIterator, align 4
  %6 = alloca %class.EnumIterator, align 4
  %7 = alloca %class.EnumIterator, align 4
  %8 = alloca i32, align 4
  store ptr @_ZL23vm_intrinsic_name_table, ptr %1, align 8
  %9 = load ptr, ptr @_ZL24vm_intrinsic_name_bodies, align 8
  %10 = getelementptr inbounds i8, ptr %9, i64 0
  store ptr %10, ptr %2, align 8
  call void @_ZN9EnumRangeI13vmIntrinsicIDEC2Ev(ptr noundef nonnull align 4 dereferenceable(8) %4)
  store ptr %4, ptr %3, align 8
  %11 = load ptr, ptr %3, align 8
  %12 = call i32 @_ZNK9EnumRangeI13vmIntrinsicIDE5beginEv(ptr noundef nonnull align 4 dereferenceable(8) %11)
  %13 = getelementptr inbounds %class.EnumIterator, ptr %5, i32 0, i32 0
  store i32 %12, ptr %13, align 4
  %14 = load ptr, ptr %3, align 8
  %15 = call i32 @_ZNK9EnumRangeI13vmIntrinsicIDE3endEv(ptr noundef nonnull align 4 dereferenceable(8) %14)
  %16 = getelementptr inbounds %class.EnumIterator, ptr %6, i32 0, i32 0
  store i32 %15, ptr %16, align 4
  br label %17

17:                                               ; preds = %35, %0
  call void @llvm.memcpy.p0.p0.i64(ptr align 4 %7, ptr align 4 %6, i64 4, i1 false)
  %18 = getelementptr inbounds %class.EnumIterator, ptr %7, i32 0, i32 0
  %19 = load i32, ptr %18, align 4
  %20 = call noundef zeroext i1 @_ZNK12EnumIteratorI13vmIntrinsicIDEneES1_(ptr noundef nonnull align 4 dereferenceable(4) %5, i32 %19)
  br i1 %20, label %21, label %37

21:                                               ; preds = %17
  %22 = call noundef i32 @_ZNK12EnumIteratorI13vmIntrinsicIDEdeEv(ptr noundef nonnull align 4 dereferenceable(4) %5)
  store i32 %22, ptr %8, align 4
  %23 = load ptr, ptr %2, align 8
  %24 = load ptr, ptr %1, align 8
  %25 = load i32, ptr %8, align 4
  %26 = call noundef i32 @_ZN12vmIntrinsics6as_intE13vmIntrinsicID(i32 noundef %25)
  %27 = sext i32 %26 to i64
  %28 = getelementptr inbounds ptr, ptr %24, i64 %27
  store ptr %23, ptr %28, align 8
  %29 = load ptr, ptr %2, align 8
  %30 = call i64 @strlen(ptr noundef %29) #6
  %31 = load ptr, ptr %2, align 8
  %32 = getelementptr inbounds i8, ptr %31, i64 %30
  store ptr %32, ptr %2, align 8
  %33 = load ptr, ptr %2, align 8
  %34 = getelementptr inbounds i8, ptr %33, i64 1
  store ptr %34, ptr %2, align 8
  br label %35

35:                                               ; preds = %21
  %36 = call noundef nonnull align 4 dereferenceable(4) ptr @_ZN12EnumIteratorI13vmIntrinsicIDEppEv(ptr noundef nonnull align 4 dereferenceable(4) %5)
  br label %17

37:                                               ; preds = %17
  %38 = load ptr, ptr %1, align 8
  %39 = call noundef i32 @_ZN12vmIntrinsics6as_intE13vmIntrinsicID(i32 noundef 0)
  %40 = sext i32 %39 to i64
  %41 = getelementptr inbounds ptr, ptr %38, i64 %40
  store ptr @.str, ptr %41, align 8
  ret void
}

; Function Attrs: mustprogress nounwind uwtable
define linkonce_odr hidden noundef i32 @_ZN12vmIntrinsics6as_intE13vmIntrinsicID(i32 noundef %0) #1 comdat align 2 {
  %2 = alloca i32, align 4
  store i32 %0, ptr %2, align 4
  %3 = load i32, ptr %2, align 4
  ret i32 %3
}

; Function Attrs: mustprogress nounwind uwtable
define hidden noundef ptr @_ZN12vmIntrinsics7name_atE13vmIntrinsicID(i32 noundef %0) #1 align 2 {
  %2 = alloca ptr, align 8
  %3 = alloca i32, align 4
  %4 = alloca ptr, align 8
  store i32 %0, ptr %3, align 4
  store ptr @_ZL23vm_intrinsic_name_table, ptr %4, align 8
  %5 = load ptr, ptr %4, align 8
  %6 = call noundef i32 @_ZN12vmIntrinsics6as_intE13vmIntrinsicID(i32 noundef 0)
  %7 = sext i32 %6 to i64
  %8 = getelementptr inbounds ptr, ptr %5, i64 %7
  %9 = load ptr, ptr %8, align 8
  %10 = icmp eq ptr %9, null
  br i1 %10, label %11, label %12

11:                                               ; preds = %1
  call void @_ZN12vmIntrinsics28init_vm_intrinsic_name_tableEv()
  br label %12

12:                                               ; preds = %11, %1
  %13 = load i32, ptr %3, align 4
  %14 = icmp slt i32 %13, 421
  br i1 %14, label %15, label %21

15:                                               ; preds = %12
  %16 = load i32, ptr %3, align 4
  %17 = call noundef i32 @_ZN12vmIntrinsics6as_intE13vmIntrinsicID(i32 noundef %16)
  %18 = sext i32 %17 to i64
  %19 = getelementptr inbounds [421 x ptr], ptr @_ZL23vm_intrinsic_name_table, i64 0, i64 %18
  %20 = load ptr, ptr %19, align 8
  store ptr %20, ptr %2, align 8
  br label %22

21:                                               ; preds = %12
  store ptr @.str.5, ptr %2, align 8
  br label %22

22:                                               ; preds = %21, %15
  %23 = load ptr, ptr %2, align 8
  ret ptr %23
}

; Function Attrs: mustprogress nounwind uwtable
define hidden noundef ptr @_ZN12vmIntrinsics22short_name_as_C_stringE13vmIntrinsicIDPci(i32 noundef %0, ptr noundef %1, i32 noundef %2) #1 align 2 {
  %4 = alloca i32, align 4
  %5 = alloca ptr, align 8
  %6 = alloca i32, align 4
  %7 = alloca ptr, align 8
  store i32 %0, ptr %4, align 4
  store ptr %1, ptr %5, align 8
  store i32 %2, ptr %6, align 4
  %8 = load i32, ptr %4, align 4
  %9 = call noundef ptr @_ZN12vmIntrinsics7name_atE13vmIntrinsicID(i32 noundef %8)
  store ptr %9, ptr %7, align 8
  %10 = load ptr, ptr %7, align 8
  ret ptr %10
}