; Function Attrs: mustprogress nofree nounwind memory(readwrite, argmem: none, inaccessiblemem: none) uwtable
define hidden noundef ptr @_ZN12vmIntrinsics22short_name_as_C_stringE13vmIntrinsicIDPci(i32 noundef %0, ptr nocapture noundef readnone %1, i32 noundef %2) local_unnamed_addr #4 align 2 {
  %4 = load ptr, ptr @_ZL23vm_intrinsic_name_table, align 16
  %5 = icmp eq ptr %4, null
  br i1 %5, label %.preheader.i, label %10

.preheader.i:                                     ; preds = %3, %.preheader.i
  %indvars.iv.i.i = phi i64 [ %indvars.iv.next.i.i, %.preheader.i ], [ 1, %3 ]
  %.013.i.i = phi ptr [ %9, %.preheader.i ], [ @.str.6, %3 ]
  %6 = getelementptr inbounds ptr, ptr @_ZL23vm_intrinsic_name_table, i64 %indvars.iv.i.i
  store ptr %.013.i.i, ptr %6, align 8
  %7 = tail call i64 @strlen(ptr noundef nonnull dereferenceable(1) %.013.i.i) #9
  %8 = getelementptr inbounds i8, ptr %.013.i.i, i64 %7
  %9 = getelementptr inbounds i8, ptr %8, i64 1
  %indvars.iv.next.i.i = add nuw nsw i64 %indvars.iv.i.i, 1
  %.not.i.i = icmp eq i64 %indvars.iv.next.i.i, 421
  br i1 %.not.i.i, label %_ZN12vmIntrinsics28init_vm_intrinsic_name_tableEv.exit.i, label %.preheader.i

_ZN12vmIntrinsics28init_vm_intrinsic_name_tableEv.exit.i: ; preds = %.preheader.i
  store ptr @.str, ptr @_ZL23vm_intrinsic_name_table, align 16
  br label %10

10:                                               ; preds = %_ZN12vmIntrinsics28init_vm_intrinsic_name_tableEv.exit.i, %3
  %11 = icmp slt i32 %0, 421
  br i1 %11, label %12, label %_ZN12vmIntrinsics7name_atE13vmIntrinsicID.exit

12:                                               ; preds = %10
  %13 = sext i32 %0 to i64
  %14 = getelementptr inbounds [421 x ptr], ptr @_ZL23vm_intrinsic_name_table, i64 0, i64 %13
  %15 = load ptr, ptr %14, align 8
  br label %_ZN12vmIntrinsics7name_atE13vmIntrinsicID.exit

_ZN12vmIntrinsics7name_atE13vmIntrinsicID.exit:   ; preds = %10, %12
  %.0.i = phi ptr [ %15, %12 ], [ @.str.5, %10 ]
  ret ptr %.0.i
}